; Function Attrs: mustprogress nounwind uwtable
define hidden void @_ZN2cv11bioinspired17ParvoRetinaFilterD0Ev(ptr noundef nonnull align 8 dereferenceable(304) initializes((0, 8)) %0) unnamed_addr #5 align 2 personality ptr @__gxx_personality_v0 {
  store ptr getelementptr inbounds nuw inrange(-16, 16) (i8, ptr @_ZTVN2cv11bioinspired17ParvoRetinaFilterE, i64 16), ptr %0, align 8, !tbaa !3
  %2 = getelementptr inbounds nuw i8, ptr %0, i64 280
  %3 = load ptr, ptr %2, align 8, !tbaa !12
  tail call void @_ZdlPv(ptr noundef %3) #13
  %4 = getelementptr inbounds nuw i8, ptr %0, i64 264
  %5 = load ptr, ptr %4, align 8, !tbaa !12
  tail call void @_ZdlPv(ptr noundef %5) #13
  %6 = getelementptr inbounds nuw i8, ptr %0, i64 248
  %7 = load ptr, ptr %6, align 8, !tbaa !12
  tail call void @_ZdlPv(ptr noundef %7) #13
  %8 = getelementptr inbounds nuw i8, ptr %0, i64 232
  %9 = load ptr, ptr %8, align 8, !tbaa !12
  tail call void @_ZdlPv(ptr noundef %9) #13
  %10 = getelementptr inbounds nuw i8, ptr %0, i64 216
  %11 = load ptr, ptr %10, align 8, !tbaa !12
  tail call void @_ZdlPv(ptr noundef %11) #13
  %12 = getelementptr inbounds nuw i8, ptr %0, i64 200
  %13 = load ptr, ptr %12, align 8, !tbaa !12
  tail call void @_ZdlPv(ptr noundef %13) #13
  %14 = getelementptr inbounds nuw i8, ptr %0, i64 184
  %15 = load ptr, ptr %14, align 8, !tbaa !12
  tail call void @_ZdlPv(ptr noundef %15) #13
  %16 = getelementptr inbounds nuw i8, ptr %0, i64 8
  tail call void @_ZN2cv11bioinspired17BasicRetinaFilterD2Ev(ptr noundef nonnull align 8 dereferenceable(168) %16) #13
  tail call void @_ZdlPv(ptr noundef nonnull %0) #14
  ret void
}